target datalayout = "e-m:e-p270:32:32-p271:32:32-p272:64:64-i64:64-i128:128-f80:128-n8:16:32:64-S128"
target triple = "x86_64-pc-linux-gnu"

%struct.jdwpTransportNativeInterface_ = type { ptr, ptr, ptr, ptr, ptr, ptr, ptr, ptr, ptr, ptr, ptr, ptr }
%struct.BackendGlobalData = type <{ ptr, ptr, i8, i8, i8, i8, i8, i8, i8, i8, i8, [3 x i8], i32, ptr, ptr, ptr, ptr, ptr, ptr, ptr, ptr, ptr, ptr, ptr, ptr, ptr, i32, %struct.jvmtiCapabilities, i8, [3 x i8], %struct.jvmtiEventCallbacks, ptr, ptr, ptr, ptr, ptr, ptr, ptr, i32, [4 x i8], ptr, i64, i32, [4 x i8], ptr, i32, i32, i8, i8, [6 x i8] }>
%struct.jvmtiCapabilities = type { i64, i64 }
%struct.jvmtiEventCallbacks = type { ptr, ptr, ptr, ptr, ptr, ptr, ptr, ptr, ptr, ptr, ptr, ptr, ptr, ptr, ptr, ptr, ptr, ptr, ptr, ptr, ptr, ptr, ptr, ptr, ptr, ptr, ptr, ptr, ptr, ptr, ptr, ptr, ptr, ptr, ptr, ptr, ptr, ptr, ptr }

@listenerLock = internal global ptr null, align 8
@transport = internal global ptr null, align 8
@gdata = external global ptr, align 8
@.str.3 = private unnamed_addr constant [52 x i8] c"src/jdk.jdwp.agent/share/native/libjdwp/transport.c\00", align 1
@.str.32 = private unnamed_addr constant [10 x i8] c"JNI_FALSE\00", align 1

; Function Attrs: nounwind uwtable
define internal void @connectionInitiated(ptr noundef %0) #0 {
  %2 = alloca ptr, align 8
  %3 = alloca i32, align 4
  store ptr %0, ptr %2, align 8
  store i32 0, ptr %3, align 4
  %4 = load ptr, ptr @listenerLock, align 8
  call void @debugMonitorEnter(ptr noundef %4)
  call void @debugInit_waitInitComplete()
  %5 = load ptr, ptr @transport, align 8
  %6 = icmp eq ptr %5, null
  br i1 %6, label %7, label %9

7:                                                ; preds = %1
  %8 = load ptr, ptr %2, align 8
  store ptr %8, ptr @transport, align 8
  store i32 1, ptr %3, align 4
  br label %34

9:                                                ; preds = %1
  %10 = load ptr, ptr @transport, align 8
  %11 = load ptr, ptr %2, align 8
  %12 = icmp eq ptr %10, %11
  br i1 %12, label %13, label %14

13:                                               ; preds = %9
  store i32 1, ptr %3, align 4
  br label %33

14:                                               ; preds = %9
  %15 = load ptr, ptr %2, align 8
  %16 = load ptr, ptr %15, align 8
  %17 = getelementptr inbounds %struct.jdwpTransportNativeInterface_, ptr %16, i32 0, i32 7
  %18 = load ptr, ptr %17, align 8
  %19 = load ptr, ptr %2, align 8
  %20 = call i32 %18(ptr noundef %19)
  br label %21

21:                                               ; preds = %14
  %22 = load ptr, ptr @gdata, align 8
  %23 = icmp ne ptr %22, null
  br i1 %23, label %24, label %31

24:                                               ; preds = %21
  %25 = load ptr, ptr @gdata, align 8
  %26 = getelementptr inbounds %struct.BackendGlobalData, ptr %25, i32 0, i32 3
  %27 = load i8, ptr %26, align 1
  %28 = zext i8 %27 to i32
  %29 = icmp ne i32 %28, 0
  br i1 %29, label %30, label %31

30:                                               ; preds = %24
  call void @jdiAssertionFailed(ptr noundef @.str.3, i32 noundef 301, ptr noundef @.str.32)
  br label %31

31:                                               ; preds = %30, %24, %21
  br label %32

32:                                               ; preds = %31
  br label %33

33:                                               ; preds = %32, %13
  br label %34

34:                                               ; preds = %33, %7
  %35 = load i32, ptr %3, align 4
  %36 = icmp ne i32 %35, 0
  br i1 %36, label %37, label %39

37:                                               ; preds = %34
  %38 = load ptr, ptr @listenerLock, align 8
  call void @debugMonitorNotifyAll(ptr noundef %38)
  br label %39

39:                                               ; preds = %37, %34
  %40 = load ptr, ptr @listenerLock, align 8
  call void @debugMonitorExit(ptr noundef %40)
  %41 = load i32, ptr %3, align 4
  %42 = icmp ne i32 %41, 0
  br i1 %42, label %43, label %44

43:                                               ; preds = %39
  call void @debugLoop_run()
  br label %44

44:                                               ; preds = %43, %39
  ret void
}