; Function Attrs: nounwind uwtable
define internal fastcc void @connectionInitiated(ptr noundef %0) unnamed_addr #0 {
  %2 = load ptr, ptr @listenerLock, align 8
  tail call void @debugMonitorEnter(ptr noundef %2) #6
  tail call void @debugInit_waitInitComplete() #6
  %3 = load ptr, ptr @transport, align 8
  %4 = icmp eq ptr %3, null
  br i1 %4, label %5, label %6

5:                                                ; preds = %1
  store ptr %0, ptr @transport, align 8
  br label %.critedge11

6:                                                ; preds = %1
  %7 = icmp eq ptr %3, %0
  br i1 %7, label %.critedge11, label %8

8:                                                ; preds = %6
  %9 = load ptr, ptr %0, align 8
  %10 = getelementptr inbounds i8, ptr %9, i64 56
  %11 = load ptr, ptr %10, align 8
  %12 = tail call i32 %11(ptr noundef nonnull %0) #6
  %13 = load ptr, ptr @gdata, align 8
  %.not = icmp eq ptr %13, null
  br i1 %.not, label %.critedge, label %14

14:                                               ; preds = %8
  %15 = getelementptr inbounds i8, ptr %13, i64 17
  %16 = load i8, ptr %15, align 1
  %.not8 = icmp eq i8 %16, 0
  br i1 %.not8, label %.critedge, label %17

17:                                               ; preds = %14
  tail call void @jdiAssertionFailed(ptr noundef nonnull @.str.3, i32 noundef 301, ptr noundef nonnull @.str.32) #6
  br label %.critedge

.critedge11:                                      ; preds = %6, %5
  %18 = load ptr, ptr @listenerLock, align 8
  tail call void @debugMonitorNotifyAll(ptr noundef %18) #6
  %19 = load ptr, ptr @listenerLock, align 8
  tail call void @debugMonitorExit(ptr noundef %19) #6
  tail call void @debugLoop_run() #6
  br label %21

.critedge:                                        ; preds = %17, %14, %8
  %20 = load ptr, ptr @listenerLock, align 8
  tail call void @debugMonitorExit(ptr noundef %20) #6
  br label %21

21:                                               ; preds = %.critedge, %.critedge11
  ret void
}